Certificate:
    Data:
        Version: 3 (0x2)
        Serial Number: 1 (0x1)
    Signature Algorithm: sha1WithRSAEncryption
        Issuer: C=AU, ST=Some-State, O=Internet Widgits Pty Ltd
        Validity
            Not Before: Jan 24 15:23:40 2018 GMT
            Not After : Jan 22 15:23:40 2028 GMT
        Subject: C=US, ST=Illinois, O=Bjhaid, OU=Administration, CN=foo.bar.com/emailAddress=certmaster@bar.com
        Subject Public Key Info:
            Public Key Algorithm: rsaEncryption
                Public-Key: (2048 bit)
                Modulus:
                    00:9c:6d:93:be:95:a0:d1:05:70:0f:16:11:9a:ce:
                    fb:5e:2e:88:1a:48:3e:7f:21:19:83:fd:be:b2:41:
                    68:aa:3b:69:30:cf:6a:1b:7f:e5:fc:4c:e8:4e:c3:
                    b6:aa:26:ea:95:1d:67:53:cf:55:c8:b2:32:71:41:
                    a7:69:cf:59:cb:65:4b:8c:b8:87:5b:25:74:1a:1e:
                    d7:d0:bc:63:20:61:17:20:12:1c:60:2f:95:2c:1e:
                    62:33:88:d0:50:0b:86:f1:8b:2e:7e:29:40:68:5d:
                    06:8b:87:36:cb:18:9b:19:a3:dd:7b:f4:bb:3b:de:
                    82:2c:6e:d9:4a:3c:6a:bc:9b:9d:8c:c0:44:c0:d5:
                    d3:31:b8:f6:7a:90:b0:48:74:f5:5d:27:2c:e1:25:
                    90:19:3f:93:77:d3:3a:52:91:3d:0e:98:d4:e3:71:
                    17:a7:0e:ad:8a:97:2a:6e:7b:a0:4e:da:4c:14:ea:
                    bf:77:03:14:42:d2:8a:ee:73:11:23:dc:00:99:9f:
                    83:a5:f4:f0:b6:82:6b:31:b6:4d:69:93:11:81:45:
                    95:11:7f:ad:74:fa:4f:65:05:cc:7f:1d:71:d4:7c:
                    d0:51:ed:5c:fd:9b:b2:30:9c:61:26:eb:05:a4:0d:
                    a7:22:00:43:5a:e6:14:7a:f8:5b:e7:3e:14:ea:13:
                    63:29
                Exponent: 65537 (0x10001)
        X509v3 extensions:
            X509v3 Basic Constraints: 
                CA:FALSE
            Netscape Cert Type: 
                SSL Server
            Netscape Comment: 
                Bjhaid Server Certificate
            X509v3 Subject Key Identifier: 
                73:A2:2D:74:43:72:16:1C:6F:AA:BC:3B:C1:4F:D3:CD:61:AF:FE:2E
            X509v3 Authority Key Identifier: 
                keyid:7E:E0:43:4C:F8:73:7B:31:17:9C:A2:EE:EE:3C:C5:F9:F2:BC:25:9A
                DirName:/C=AU/ST=Some-State/O=Internet Widgits Pty Ltd
                serial:B4:C2:E1:EB:06:7A:A1:EB

            X509v3 Issuer Alternative Name: 
                <EMPTY>

            X509v3 Subject Alternative Name: 
                email:certmaster@bar.com
    Signature Algorithm: sha1WithRSAEncryption
         51:11:7a:46:74:65:75:e3:43:1a:25:af:46:08:8c:35:a7:35:
         72:62:45:93:43:33:df:4e:19:78:f8:d3:76:d5:f3:06:12:b0:
         63:dc:1a:41:3d:ad:53:72:58:a8:bb:22:2a:dc:5e:c6:62:28:
         54:38:0a:24:8d:3d:5e:a3:55:94:c4:26:6f:e9:55:5e:78:c6:
         06:93:03:0f:ca:4e:1f:67:2d:f6:b9:2e:80:52:2d:fc:f6:a8:
         e7:df:5f:5d:fc:ff:d3:64:74:bb:f4:8f:d4:6d:43:40:5e:16:
         40:11:d4:83:c4:e6:81:6f:fd:f1:0a:c4:a2:8c:19:3f:d7:2c:
         43:74:ae:56:98:9e:3a:e4:dd:b8:f9:e2:84:4f:4a:7d:7e:46:
         56:a1:36:6e:c3:32:74:5b:4b:77:2c:65:32:3c:cf:2c:1a:13:
         b5:28:58:77:f0:fb:c4:01:17:0e:ec:f3:0c:24:78:1e:07:06:
         c4:ce:18:70:b1:e2:a8:3d:cf:62:50:30:1f:e4:2e:db:2e:ff:
         e8:2c:cc:00:86:d2:cb:c4:43:31:7c:cc:50:5e:df:24:fe:36:
         e6:a3:e6:eb:55:49:dd:c9:18:3b:50:de:dc:bf:44:23:8c:cb:
         43:27:1c:8d:1a:76:17:4c:fc:40:9e:d0:5b:39:23:f3:83:02:
         fe:07:22:09
-----BEGIN CERTIFICATE-----
MIIEUjCCAzqgAwIBAgIBATANBgkqhkiG9w0BAQUFADBFMQswCQYDVQQGEwJBVTET
MBEGA1UECBMKU29tZS1TdGF0ZTEhMB8GA1UEChMYSW50ZXJuZXQgV2lkZ2l0cyBQ
dHkgTHRkMB4XDTE4MDEyNDE1MjM0MFoXDTI4MDEyMjE1MjM0MFowgYMxCzAJBgNV
BAYTAlVTMREwDwYDVQQIEwhJbGxpbm9pczEPMA0GA1UEChMGQmpoYWlkMRcwFQYD
VQQLEw5BZG1pbmlzdHJhdGlvbjEUMBIGA1UEAxMLZm9vLmJhci5jb20xITAfBgkq
hkiG9w0BCQEWEmNlcnRtYXN0ZXJAYmFyLmNvbTCCASIwDQYJKoZIhvcNAQEBBQAD
ggEPADCCAQoCggEBAJxtk76VoNEFcA8WEZrO+14uiBpIPn8hGYP9vrJBaKo7aTDP
aht/5fxM6E7Dtqom6pUdZ1PPVciyMnFBp2nPWctlS4y4h1sldBoe19C8YyBhFyAS
HGAvlSweYjOI0FALhvGLLn4pQGhdBouHNssYmxmj3Xv0uzvegixu2Uo8arybnYzA
RMDV0zG49nqQsEh09V0nLOElkBk/k3fTOlKRPQ6Y1ONxF6cOrYqXKm57oE7aTBTq
v3cDFELSiu5zESPcAJmfg6X08LaCazG2TWmTEYFFlRF/rXT6T2UFzH8dcdR80FHt
XP2bsjCcYSbrBaQNpyIAQ1rmFHr4W+c+FOoTYykCAwEAAaOCAQwwggEIMAkGA1Ud
EwQCMAAwEQYJYIZIAYb4QgEBBAQDAgZAMCgGCWCGSAGG+EIBDQQbFhlCamhhaWQg
U2VydmVyIENlcnRpZmljYXRlMB0GA1UdDgQWBBRzoi10Q3IWHG+qvDvBT9PNYa/+
LjB1BgNVHSMEbjBsgBR+4ENM+HN7MRecou7uPMX58rwlmqFJpEcwRTELMAkGA1UE
BhMCQVUxEzARBgNVBAgTClNvbWUtU3RhdGUxITAfBgNVBAoTGEludGVybmV0IFdp
ZGdpdHMgUHR5IEx0ZIIJALTC4esGeqHrMAkGA1UdEgQCMAAwHQYDVR0RBBYwFIES
Y2VydG1hc3RlckBiYXIuY29tMA0GCSqGSIb3DQEBBQUAA4IBAQBREXpGdGV140Ma
Ja9GCIw1pzVyYkWTQzPfThl4+NN21fMGErBj3BpBPa1TcliouyIq3F7GYihUOAok
jT1eo1WUxCZv6VVeeMYGkwMPyk4fZy32uS6AUi389qjn319d/P/TZHS79I/UbUNA
XhZAEdSDxOaBb/3xCsSijBk/1yxDdK5WmJ465N24+eKET0p9fkZWoTZuwzJ0W0t3
LGUyPM8sGhO1KFh38PvEARcO7PMMJHgeBwbEzhhwseKoPc9iUDAf5C7bLv/oLMwA
htLLxEMxfMxQXt8k/jbmo+brVUndyRg7UN7cv0QjjMtDJxyNGnYXTPxAntBbOSPz
gwL+ByIJ
-----END CERTIFICATE-----
