Certificate:
    Data:
        Version: 3 (0x2)
        Serial Number: 1 (0x1)
    Signature Algorithm: sha1WithRSAEncryption
        Issuer: C=AU, ST=Some-State, O=Internet Widgits Pty Ltd
        Validity
            Not Before: Jan 24 15:13:07 2018 GMT
            Not After : Jan 22 15:13:07 2028 GMT
        Subject: C=US, ST=Illinois, O=Bjhaid, OU=Administration, CN=foo.bar.com/emailAddress=certmaster@bar.com
        Subject Public Key Info:
            Public Key Algorithm: rsaEncryption
                Public-Key: (2048 bit)
                Modulus:
                    00:bc:54:c2:2b:ee:c4:4c:c0:8c:e4:09:d5:83:22:
                    73:e7:8b:03:d5:93:c4:1d:3c:51:24:c7:f4:72:6c:
                    2d:b1:10:d0:50:06:23:8a:a9:5f:eb:b7:b6:f1:d5:
                    1c:93:80:f2:09:f1:de:9b:6f:2f:22:44:7e:d9:61:
                    99:a1:b9:ad:97:85:79:a5:66:e5:38:86:01:ee:16:
                    0c:42:b3:4f:eb:cf:39:50:0d:de:51:8d:98:1d:26:
                    b2:91:21:6d:ae:7c:73:a9:8c:f9:ff:68:38:56:35:
                    57:32:19:ae:f6:2e:40:cf:99:dc:bc:80:0a:0f:35:
                    71:3d:e6:b9:30:51:c9:74:6f:15:35:8f:00:ae:7e:
                    04:21:1a:15:3d:bd:25:50:a6:02:66:b3:e2:a1:a3:
                    93:6c:7a:67:77:58:4e:c6:1a:ea:ff:b1:dd:31:c9:
                    c4:ff:fd:eb:23:c5:98:58:67:78:c8:5b:05:dd:ac:
                    6d:49:8a:82:05:06:24:51:55:39:e0:7b:74:4f:cd:
                    d7:9a:b4:0e:f0:ec:a0:2f:66:84:f5:4f:e7:6d:33:
                    65:1f:1a:3f:5c:e7:cb:68:ea:53:b3:93:51:66:16:
                    63:65:98:52:73:6e:44:22:43:a5:e2:1c:70:32:fb:
                    56:64:60:75:e0:6b:9b:4b:29:df:72:90:4b:2c:87:
                    59:67
                Exponent: 65537 (0x10001)
        X509v3 extensions:
            X509v3 Basic Constraints: 
                CA:FALSE
            Netscape Cert Type: 
                SSL Server
            Netscape Comment: 
                Bjhaid Server Certificate
            X509v3 Subject Key Identifier: 
                1B:CD:5A:D6:50:A5:FE:E4:A1:8E:0F:B9:07:C2:EB:EA:F0:1B:5D:F0
            X509v3 Authority Key Identifier: 
                keyid:7E:E0:43:4C:F8:73:7B:31:17:9C:A2:EE:EE:3C:C5:F9:F2:BC:25:9A
                DirName:/C=AU/ST=Some-State/O=Internet Widgits Pty Ltd
                serial:B4:C2:E1:EB:06:7A:A1:EB

            X509v3 Issuer Alternative Name: 
                <EMPTY>

            X509v3 Subject Alternative Name: 
                email:certmaster@bar.com
    Signature Algorithm: sha1WithRSAEncryption
         cb:a4:5d:d1:5b:1a:29:c5:26:18:81:e6:63:77:d5:26:f1:a1:
         24:7b:ba:29:ab:eb:da:a3:c5:1a:ae:f5:06:cd:1e:1b:24:74:
         62:39:f1:a0:e6:f3:54:12:3b:a8:62:57:b8:ca:4f:41:b7:f8:
         52:62:4a:a6:c8:de:60:3e:b0:bc:fc:7d:e1:31:44:51:1e:d5:
         18:0a:7a:80:98:9c:2a:11:3b:a9:c4:ef:cf:d6:93:4e:0c:ec:
         5c:12:7c:27:69:92:d9:b6:80:ec:56:9c:d4:cc:a1:fa:c7:58:
         dd:6a:c0:cc:e6:33:0c:e8:fe:30:ee:29:57:6d:aa:6a:ad:7b:
         14:49:8d:fb:f2:ce:b3:cc:12:c5:d2:6a:7a:cc:ee:c2:32:c0:
         03:9b:93:cf:84:42:7f:92:40:14:88:95:80:ca:0b:65:d9:58:
         be:d0:a5:3e:d3:13:f9:24:ba:78:0d:57:48:c2:92:b6:b3:de:
         29:a0:ec:26:c9:eb:2e:5f:ed:e1:3d:72:32:52:af:2e:5e:fb:
         f7:12:69:12:29:ec:e0:39:0f:ee:e4:44:7c:ba:75:16:69:05:
         6c:8f:21:99:0e:f6:0e:64:d1:b2:ff:2a:51:fd:01:77:80:c7:
         99:f9:a3:18:45:c6:7f:e9:d3:e3:8f:00:90:fe:0c:66:6c:a9:
         fb:f7:cb:d0
-----BEGIN CERTIFICATE-----
MIIEUjCCAzqgAwIBAgIBATANBgkqhkiG9w0BAQUFADBFMQswCQYDVQQGEwJBVTET
MBEGA1UECBMKU29tZS1TdGF0ZTEhMB8GA1UEChMYSW50ZXJuZXQgV2lkZ2l0cyBQ
dHkgTHRkMB4XDTE4MDEyNDE1MTMwN1oXDTI4MDEyMjE1MTMwN1owgYMxCzAJBgNV
BAYTAlVTMREwDwYDVQQIEwhJbGxpbm9pczEPMA0GA1UEChMGQmpoYWlkMRcwFQYD
VQQLEw5BZG1pbmlzdHJhdGlvbjEUMBIGA1UEAxMLZm9vLmJhci5jb20xITAfBgkq
hkiG9w0BCQEWEmNlcnRtYXN0ZXJAYmFyLmNvbTCCASIwDQYJKoZIhvcNAQEBBQAD
ggEPADCCAQoCggEBALxUwivuxEzAjOQJ1YMic+eLA9WTxB08USTH9HJsLbEQ0FAG
I4qpX+u3tvHVHJOA8gnx3ptvLyJEftlhmaG5rZeFeaVm5TiGAe4WDEKzT+vPOVAN
3lGNmB0mspEhba58c6mM+f9oOFY1VzIZrvYuQM+Z3LyACg81cT3muTBRyXRvFTWP
AK5+BCEaFT29JVCmAmaz4qGjk2x6Z3dYTsYa6v+x3THJxP/96yPFmFhneMhbBd2s
bUmKggUGJFFVOeB7dE/N15q0DvDsoC9mhPVP520zZR8aP1zny2jqU7OTUWYWY2WY
UnNuRCJDpeIccDL7VmRgdeBrm0sp33KQSyyHWWcCAwEAAaOCAQwwggEIMAkGA1Ud
EwQCMAAwEQYJYIZIAYb4QgEBBAQDAgZAMCgGCWCGSAGG+EIBDQQbFhlCamhhaWQg
U2VydmVyIENlcnRpZmljYXRlMB0GA1UdDgQWBBQbzVrWUKX+5KGOD7kHwuvq8Btd
8DB1BgNVHSMEbjBsgBR+4ENM+HN7MRecou7uPMX58rwlmqFJpEcwRTELMAkGA1UE
BhMCQVUxEzARBgNVBAgTClNvbWUtU3RhdGUxITAfBgNVBAoTGEludGVybmV0IFdp
ZGdpdHMgUHR5IEx0ZIIJALTC4esGeqHrMAkGA1UdEgQCMAAwHQYDVR0RBBYwFIES
Y2VydG1hc3RlckBiYXIuY29tMA0GCSqGSIb3DQEBBQUAA4IBAQDLpF3RWxopxSYY
geZjd9Um8aEke7opq+vao8UarvUGzR4bJHRiOfGg5vNUEjuoYle4yk9Bt/hSYkqm
yN5gPrC8/H3hMURRHtUYCnqAmJwqETupxO/P1pNODOxcEnwnaZLZtoDsVpzUzKH6
x1jdasDM5jMM6P4w7ilXbapqrXsUSY378s6zzBLF0mp6zO7CMsADm5PPhEJ/kkAU
iJWAygtl2Vi+0KU+0xP5JLp4DVdIwpK2s94poOwmyesuX+3hPXIyUq8uXvv3EmkS
KezgOQ/u5ER8unUWaQVsjyGZDvYOZNGy/ypR/QF3gMeZ+aMYRcZ/6dPjjwCQ/gxm
bKn798vQ
-----END CERTIFICATE-----
